	.file	"errCond.c"
	.text
	.section	.rodata.str1.1,"aMS",@progbits,1
.LC0:
	.string	"%d  "
	.text
	.p2align 4
	.globl	recur
	.type	recur, @function
recur:
.LFB24:
	.cfi_startproc
	endbr64
	pushq	%rbp
	.cfi_def_cfa_offset 16
	.cfi_offset 6, -16
	leaq	.LC0(%rip), %rbp
	pushq	%rbx
	.cfi_def_cfa_offset 24
	.cfi_offset 3, -24
	movl	%edi, %ebx
	subq	$8, %rsp
	.cfi_def_cfa_offset 32
	.p2align 4,,10
	.p2align 3
.L2:
	movl	%ebx, %edx
	movq	%rbp, %rsi
	movl	$1, %edi
	xorl	%eax, %eax
	call	__printf_chk@PLT
	addl	$1, %ebx
	jmp	.L2
	.cfi_endproc
.LFE24:
	.size	recur, .-recur
	.section	.text.startup,"ax",@progbits
	.p2align 4
	.globl	main
	.type	main, @function
main:
.LFB23:
	.cfi_startproc
	endbr64
	pushq	%rax
	.cfi_def_cfa_offset 16
	popq	%rax
	.cfi_def_cfa_offset 8
	movl	$1, %edi
	subq	$8, %rsp
	.cfi_def_cfa_offset 16
	call	recur
	.cfi_endproc
.LFE23:
	.size	main, .-main
	.ident	"GCC: (Ubuntu 9.4.0-1ubuntu1~20.04.2) 9.4.0"
	.section	.note.GNU-stack,"",@progbits
	.section	.note.gnu.property,"a"
	.align 8
	.long	 1f - 0f
	.long	 4f - 1f
	.long	 5
0:
	.string	 "GNU"
1:
	.align 8
	.long	 0xc0000002
	.long	 3f - 2f
2:
	.long	 0x3
3:
	.align 8
4:
